target datalayout = "e-m:e-p270:32:32-p271:32:32-p272:64:64-i64:64-i128:128-f80:128-n8:16:32:64-S128"
target triple = "x86_64-pc-linux-gnu"

%"class.clang::ento::RangeSet" = type { ptr }
%"class.llvm::IntrusiveRefCntPtr.106" = type { ptr }

; Function Attrs: mustprogress nounwind uwtable
define linkonce_odr hidden void @_ZN4llvm22IntrusiveRefCntPtrInfoIKN5clang4ento12ProgramStateEE7releaseEPS4_(ptr noundef %0) #1 comdat align 2 {
  %2 = alloca ptr, align 8
  store ptr %0, ptr %2, align 8
  %3 = load ptr, ptr %2, align 8
  call void @_ZN5clang4ento19ProgramStateReleaseEPKNS0_12ProgramStateE(ptr noundef %3)
  ret void
}

; Function Attrs: mustprogress nounwind uwtable
define linkonce_odr hidden void @_ZN4llvm22IntrusiveRefCntPtrInfoIKN5clang4ento12ProgramStateEE6retainEPS4_(ptr noundef %0) #1 comdat align 2 {
  %2 = alloca ptr, align 8
  store ptr %0, ptr %2, align 8
  %3 = load ptr, ptr %2, align 8
  call void @_ZN5clang4ento18ProgramStateRetainEPKNS0_12ProgramStateE(ptr noundef %3)
  ret void
}

; Function Attrs: mustprogress nounwind uwtable
define linkonce_odr hidden void @_ZN4llvm18IntrusiveRefCntPtrIKN5clang4ento12ProgramStateEE7releaseEv(ptr noundef nonnull align 8 dereferenceable(8) %0) #1 comdat align 2 {
  %2 = alloca ptr, align 8
  store ptr %0, ptr %2, align 8
  %3 = load ptr, ptr %2, align 8
  %4 = getelementptr inbounds nuw %"class.llvm::IntrusiveRefCntPtr.106", ptr %3, i32 0, i32 0
  %5 = load ptr, ptr %4, align 8
  %6 = icmp ne ptr %5, null
  br i1 %6, label %7, label %10

7:                                                ; preds = %1
  %8 = getelementptr inbounds nuw %"class.llvm::IntrusiveRefCntPtr.106", ptr %3, i32 0, i32 0
  %9 = load ptr, ptr %8, align 8
  call void @_ZN4llvm22IntrusiveRefCntPtrInfoIKN5clang4ento12ProgramStateEE7releaseEPS4_(ptr noundef %9)
  br label %10

10:                                               ; preds = %7, %1
  ret void
}

; Function Attrs: mustprogress nounwind uwtable
define linkonce_odr hidden void @_ZN4llvm18IntrusiveRefCntPtrIKN5clang4ento12ProgramStateEE6retainEv(ptr noundef nonnull align 8 dereferenceable(8) %0) #1 comdat align 2 {
  %2 = alloca ptr, align 8
  store ptr %0, ptr %2, align 8
  %3 = load ptr, ptr %2, align 8
  %4 = getelementptr inbounds nuw %"class.llvm::IntrusiveRefCntPtr.106", ptr %3, i32 0, i32 0
  %5 = load ptr, ptr %4, align 8
  %6 = icmp ne ptr %5, null
  br i1 %6, label %7, label %10

7:                                                ; preds = %1
  %8 = getelementptr inbounds nuw %"class.llvm::IntrusiveRefCntPtr.106", ptr %3, i32 0, i32 0
  %9 = load ptr, ptr %8, align 8
  call void @_ZN4llvm22IntrusiveRefCntPtrInfoIKN5clang4ento12ProgramStateEE6retainEPS4_(ptr noundef %9)
  br label %10

10:                                               ; preds = %7, %1
  ret void
}

; Function Attrs: mustprogress nounwind uwtable
define linkonce_odr hidden void @_ZN4llvm18IntrusiveRefCntPtrIKN5clang4ento12ProgramStateEED2Ev(ptr noundef nonnull align 8 dereferenceable(8) %0) unnamed_addr #1 comdat align 2 {
  %2 = alloca ptr, align 8
  store ptr %0, ptr %2, align 8
  %3 = load ptr, ptr %2, align 8
  call void @_ZN4llvm18IntrusiveRefCntPtrIKN5clang4ento12ProgramStateEE7releaseEv(ptr noundef nonnull align 8 dereferenceable(8) %3)
  ret void
}

; Function Attrs: mustprogress nounwind uwtable
define linkonce_odr hidden void @_ZN4llvm18IntrusiveRefCntPtrIKN5clang4ento12ProgramStateEEC2ERKS5_(ptr noundef nonnull align 8 dereferenceable(8) %0, ptr noundef nonnull align 8 dereferenceable(8) %1) unnamed_addr #1 comdat align 2 {
  %3 = alloca ptr, align 8
  %4 = alloca ptr, align 8
  store ptr %0, ptr %3, align 8
  store ptr %1, ptr %4, align 8
  %5 = load ptr, ptr %3, align 8
  %6 = getelementptr inbounds nuw %"class.llvm::IntrusiveRefCntPtr.106", ptr %5, i32 0, i32 0
  %7 = load ptr, ptr %4, align 8
  %8 = getelementptr inbounds nuw %"class.llvm::IntrusiveRefCntPtr.106", ptr %7, i32 0, i32 0
  %9 = load ptr, ptr %8, align 8
  store ptr %9, ptr %6, align 8
  call void @_ZN4llvm18IntrusiveRefCntPtrIKN5clang4ento12ProgramStateEE6retainEv(ptr noundef nonnull align 8 dereferenceable(8) %5)
  ret void
}

; Function Attrs: mustprogress nounwind uwtable
define internal void @_ZN12_GLOBAL__N_122RangeConstraintManager11assumeSymLTEN4llvm18IntrusiveRefCntPtrIKN5clang4ento12ProgramStateEEEPKNS4_7SymExprERKNS1_6APSIntESD_(ptr dead_on_unwind noalias writable sret(%"class.llvm::IntrusiveRefCntPtr.106") align 8 %0, ptr noundef nonnull align 8 dereferenceable(192) %1, ptr noundef %2, ptr noundef %3, ptr noundef nonnull align 8 dereferenceable(13) %4, ptr noundef nonnull align 8 dereferenceable(13) %5) unnamed_addr #1 align 2 {
  %7 = alloca ptr, align 8
  %8 = alloca ptr, align 8
  %9 = alloca ptr, align 8
  %10 = alloca ptr, align 8
  %11 = alloca ptr, align 8
  %12 = alloca ptr, align 8
  %13 = alloca %"class.clang::ento::RangeSet", align 8
  %14 = alloca %"class.llvm::IntrusiveRefCntPtr.106", align 8
  %15 = alloca %"class.llvm::IntrusiveRefCntPtr.106", align 8
  %16 = alloca %"class.clang::ento::RangeSet", align 8
  store ptr %0, ptr %7, align 8
  store ptr %1, ptr %8, align 8
  store ptr %2, ptr %9, align 8
  store ptr %3, ptr %10, align 8
  store ptr %4, ptr %11, align 8
  store ptr %5, ptr %12, align 8
  %17 = load ptr, ptr %8, align 8
  call void @_ZN4llvm18IntrusiveRefCntPtrIKN5clang4ento12ProgramStateEEC2ERKS5_(ptr noundef nonnull align 8 dereferenceable(8) %14, ptr noundef nonnull align 8 dereferenceable(8) %2)
  %18 = load ptr, ptr %10, align 8
  %19 = load ptr, ptr %11, align 8
  %20 = load ptr, ptr %12, align 8
  %21 = call ptr @_ZN12_GLOBAL__N_122RangeConstraintManager13getSymLTRangeEN4llvm18IntrusiveRefCntPtrIKN5clang4ento12ProgramStateEEEPKNS4_7SymExprERKNS1_6APSIntESD_(ptr noundef nonnull align 8 dereferenceable(192) %17, ptr noundef %14, ptr noundef %18, ptr noundef nonnull align 8 dereferenceable(13) %19, ptr noundef nonnull align 8 dereferenceable(13) %20)
  %22 = getelementptr inbounds nuw %"class.clang::ento::RangeSet", ptr %13, i32 0, i32 0
  store ptr %21, ptr %22, align 8
  call void @_ZN4llvm18IntrusiveRefCntPtrIKN5clang4ento12ProgramStateEED2Ev(ptr noundef nonnull align 8 dereferenceable(8) %14) #3
  call void @_ZN4llvm18IntrusiveRefCntPtrIKN5clang4ento12ProgramStateEEC2ERKS5_(ptr noundef nonnull align 8 dereferenceable(8) %15, ptr noundef nonnull align 8 dereferenceable(8) %2)
  %23 = load ptr, ptr %10, align 8
  call void @llvm.memcpy.p0.p0.i64(ptr align 8 %16, ptr align 8 %13, i64 8, i1 false)
  %24 = getelementptr inbounds nuw %"class.clang::ento::RangeSet", ptr %16, i32 0, i32 0
  %25 = load ptr, ptr %24, align 8
  call void @_ZN12_GLOBAL__N_122RangeConstraintManager8setRangeEN4llvm18IntrusiveRefCntPtrIKN5clang4ento12ProgramStateEEEPKNS4_7SymExprENS4_8RangeSetE(ptr dead_on_unwind writable sret(%"class.llvm::IntrusiveRefCntPtr.106") align 8 %0, ptr noundef nonnull align 8 dereferenceable(192) %17, ptr noundef %15, ptr noundef %23, ptr %25)
  call void @_ZN4llvm18IntrusiveRefCntPtrIKN5clang4ento12ProgramStateEED2Ev(ptr noundef nonnull align 8 dereferenceable(8) %15) #3
  ret void
}